; Function Attrs: nounwind sspstrong uwtable
define internal void @job_exit(ptr noundef initializes((180, 181)) %0) #0 {
glib_autoptr_cleanup_QemuLockable.exit:
  %1 = load atomic i64, ptr @qemu_mutex_lock_func monotonic, align 8
  %2 = inttoptr i64 %1 to ptr
  tail call void %2(ptr noundef nonnull @job_mutex, ptr noundef nonnull @.str.29, i32 noundef 56) #15
  %3 = getelementptr inbounds nuw i8, ptr %0, i64 120
  %4 = load i32, ptr %3, align 8
  %5 = add i32 %4, 1
  store i32 %5, ptr %3, align 8
  %6 = getelementptr inbounds nuw i8, ptr %0, i64 180
  store i8 0, ptr %6, align 4
  %7 = getelementptr inbounds nuw i8, ptr %0, i64 232
  tail call void @notifier_list_notify(ptr noundef nonnull %7, ptr noundef %0) #15
  tail call fastcc void @job_completed_locked(ptr noundef %0)
  tail call void @job_unref_locked(ptr noundef %0)
  tail call void @qemu_mutex_unlock_impl(ptr noundef nonnull @job_mutex, ptr noundef nonnull @.str.29, i32 noundef 56) #15
  ret void
}